target datalayout = "e-m:e-p270:32:32-p271:32:32-p272:64:64-i64:64-i128:128-f80:128-n8:16:32:64-S128"
target triple = "x86_64-pc-linux-gnu"

@hf_nfs_mtime = internal global i32 0, align 4
@hf_nfs_mtime_sec = internal global i32 0, align 4
@hf_nfs_ctime = internal global i32 0, align 4
@hf_nfs_ctime_sec = internal global i32 0, align 4
@hf_nfs3_attributes_follow = internal global i32 0, align 4
@.str = private unnamed_addr constant [11 x i8] c"attributes\00", align 1
@hf_nfs3_wcc_attr_size = internal global i32 0, align 4
@hf_nfs_mtime_nsec = internal global i32 0, align 4
@hf_nfs_ctime_nsec = internal global i32 0, align 4
@ett_nfs3_pre_op_attr = internal global i32 0, align 4
@ett_nfs3_wcc_attr = internal global i32 0, align 4
@ett_nfs3_wcc_data = internal global i32 0, align 4
@.str.2302 = private unnamed_addr constant [7 x i8] c"before\00", align 1
@.str.2303 = private unnamed_addr constant [6 x i8] c"after\00", align 1

; Function Attrs: null_pointer_is_valid sspstrong uwtable
define internal i32 @dissect_wcc_attr(ptr noundef %0, i32 noundef %1, ptr noundef %2, ptr noundef %3) #0 {
  %5 = alloca ptr, align 8
  %6 = alloca i32, align 4
  %7 = alloca ptr, align 8
  %8 = alloca ptr, align 8
  %9 = alloca ptr, align 8
  %10 = alloca ptr, align 8
  %11 = alloca i32, align 4
  store ptr %0, ptr %5, align 8
  store i32 %1, ptr %6, align 4
  store ptr %2, ptr %7, align 8
  store ptr %3, ptr %8, align 8
  call void @llvm.lifetime.start.p0(i64 8, ptr %9) #16
  call void @llvm.lifetime.start.p0(i64 8, ptr %10) #16
  call void @llvm.lifetime.start.p0(i64 4, ptr %11) #16
  %12 = load i32, ptr %6, align 4
  store i32 %12, ptr %11, align 4
  %13 = load ptr, ptr %7, align 8
  %14 = load ptr, ptr %5, align 8
  %15 = load i32, ptr %6, align 4
  %16 = load i32, ptr @ett_nfs3_wcc_attr, align 4
  %17 = load ptr, ptr %8, align 8
  %18 = call ptr @proto_tree_add_subtree(ptr noundef %13, ptr noundef %14, i32 noundef %15, i32 noundef -1, i32 noundef %16, ptr noundef %9, ptr noundef %17)
  store ptr %18, ptr %10, align 8
  %19 = load ptr, ptr %5, align 8
  %20 = load ptr, ptr %10, align 8
  %21 = load i32, ptr @hf_nfs3_wcc_attr_size, align 4
  %22 = load i32, ptr %6, align 4
  %23 = call i32 @dissect_rpc_uint64(ptr noundef %19, ptr noundef %20, i32 noundef %21, i32 noundef %22)
  store i32 %23, ptr %6, align 4
  %24 = load ptr, ptr %5, align 8
  %25 = load i32, ptr %6, align 4
  %26 = load ptr, ptr %10, align 8
  %27 = load i32, ptr @hf_nfs_mtime, align 4
  %28 = load i32, ptr @hf_nfs_mtime_sec, align 4
  %29 = load i32, ptr @hf_nfs_mtime_nsec, align 4
  %30 = call i32 @dissect_nfstime3(ptr noundef %24, i32 noundef %25, ptr noundef %26, i32 noundef %27, i32 noundef %28, i32 noundef %29)
  store i32 %30, ptr %6, align 4
  %31 = load ptr, ptr %5, align 8
  %32 = load i32, ptr %6, align 4
  %33 = load ptr, ptr %10, align 8
  %34 = load i32, ptr @hf_nfs_ctime, align 4
  %35 = load i32, ptr @hf_nfs_ctime_sec, align 4
  %36 = load i32, ptr @hf_nfs_ctime_nsec, align 4
  %37 = call i32 @dissect_nfstime3(ptr noundef %31, i32 noundef %32, ptr noundef %33, i32 noundef %34, i32 noundef %35, i32 noundef %36)
  store i32 %37, ptr %6, align 4
  %38 = load ptr, ptr %9, align 8
  %39 = load i32, ptr %6, align 4
  %40 = load i32, ptr %11, align 4
  %41 = sub i32 %39, %40
  call void @proto_item_set_len(ptr noundef %38, i32 noundef %41)
  %42 = load i32, ptr %6, align 4
  call void @llvm.lifetime.end.p0(i64 4, ptr %11) #16
  call void @llvm.lifetime.end.p0(i64 8, ptr %10) #16
  call void @llvm.lifetime.end.p0(i64 8, ptr %9) #16
  ret i32 %42
}

; Function Attrs: null_pointer_is_valid sspstrong uwtable
define internal i32 @dissect_pre_op_attr(ptr noundef %0, i32 noundef %1, ptr noundef %2, ptr noundef %3) #0 {
  %5 = alloca ptr, align 8
  %6 = alloca i32, align 4
  %7 = alloca ptr, align 8
  %8 = alloca ptr, align 8
  %9 = alloca ptr, align 8
  %10 = alloca ptr, align 8
  %11 = alloca i32, align 4
  %12 = alloca i32, align 4
  store ptr %0, ptr %5, align 8
  store i32 %1, ptr %6, align 4
  store ptr %2, ptr %7, align 8
  store ptr %3, ptr %8, align 8
  call void @llvm.lifetime.start.p0(i64 8, ptr %9) #16
  call void @llvm.lifetime.start.p0(i64 8, ptr %10) #16
  call void @llvm.lifetime.start.p0(i64 4, ptr %11) #16
  %13 = load i32, ptr %6, align 4
  store i32 %13, ptr %11, align 4
  call void @llvm.lifetime.start.p0(i64 4, ptr %12) #16
  %14 = load ptr, ptr %7, align 8
  %15 = load ptr, ptr %5, align 8
  %16 = load i32, ptr %6, align 4
  %17 = load i32, ptr @ett_nfs3_pre_op_attr, align 4
  %18 = load ptr, ptr %8, align 8
  %19 = call ptr @proto_tree_add_subtree(ptr noundef %14, ptr noundef %15, i32 noundef %16, i32 noundef -1, i32 noundef %17, ptr noundef %9, ptr noundef %18)
  store ptr %19, ptr %10, align 8
  %20 = load ptr, ptr %10, align 8
  %21 = load i32, ptr @hf_nfs3_attributes_follow, align 4
  %22 = load ptr, ptr %5, align 8
  %23 = load i32, ptr %6, align 4
  %24 = call ptr @proto_tree_add_item_ret_uint(ptr noundef %20, i32 noundef %21, ptr noundef %22, i32 noundef %23, i32 noundef 4, i32 noundef 0, ptr noundef %12)
  %25 = load i32, ptr %6, align 4
  %26 = add i32 %25, 4
  store i32 %26, ptr %6, align 4
  %27 = load i32, ptr %12, align 4
  switch i32 %27, label %33 [
    i32 1, label %28
    i32 0, label %33
  ]

28:                                               ; preds = %4
  %29 = load ptr, ptr %5, align 8
  %30 = load i32, ptr %6, align 4
  %31 = load ptr, ptr %10, align 8
  %32 = call i32 @dissect_wcc_attr(ptr noundef %29, i32 noundef %30, ptr noundef %31, ptr noundef @.str)
  store i32 %32, ptr %6, align 4
  br label %33

33:                                               ; preds = %4, %4, %28
  %34 = load ptr, ptr %9, align 8
  %35 = load i32, ptr %6, align 4
  %36 = load i32, ptr %11, align 4
  %37 = sub i32 %35, %36
  call void @proto_item_set_len(ptr noundef %34, i32 noundef %37)
  %38 = load i32, ptr %6, align 4
  call void @llvm.lifetime.end.p0(i64 4, ptr %12) #16
  call void @llvm.lifetime.end.p0(i64 4, ptr %11) #16
  call void @llvm.lifetime.end.p0(i64 8, ptr %10) #16
  call void @llvm.lifetime.end.p0(i64 8, ptr %9) #16
  ret i32 %38
}

; Function Attrs: null_pointer_is_valid sspstrong uwtable
define internal i32 @dissect_wcc_data(ptr noundef %0, i32 noundef %1, ptr noundef %2, ptr noundef %3, ptr noundef %4) #0 {
  %6 = alloca ptr, align 8
  %7 = alloca i32, align 4
  %8 = alloca ptr, align 8
  %9 = alloca ptr, align 8
  %10 = alloca ptr, align 8
  %11 = alloca ptr, align 8
  %12 = alloca ptr, align 8
  %13 = alloca i32, align 4
  store ptr %0, ptr %6, align 8
  store i32 %1, ptr %7, align 4
  store ptr %2, ptr %8, align 8
  store ptr %3, ptr %9, align 8
  store ptr %4, ptr %10, align 8
  call void @llvm.lifetime.start.p0(i64 8, ptr %11) #16
  call void @llvm.lifetime.start.p0(i64 8, ptr %12) #16
  call void @llvm.lifetime.start.p0(i64 4, ptr %13) #16
  %14 = load i32, ptr %7, align 4
  store i32 %14, ptr %13, align 4
  %15 = load ptr, ptr %9, align 8
  %16 = load ptr, ptr %6, align 8
  %17 = load i32, ptr %7, align 4
  %18 = load i32, ptr @ett_nfs3_wcc_data, align 4
  %19 = load ptr, ptr %10, align 8
  %20 = call ptr @proto_tree_add_subtree(ptr noundef %15, ptr noundef %16, i32 noundef %17, i32 noundef -1, i32 noundef %18, ptr noundef %11, ptr noundef %19)
  store ptr %20, ptr %12, align 8
  %21 = load ptr, ptr %6, align 8
  %22 = load i32, ptr %7, align 4
  %23 = load ptr, ptr %12, align 8
  %24 = call i32 @dissect_pre_op_attr(ptr noundef %21, i32 noundef %22, ptr noundef %23, ptr noundef @.str.2302)
  store i32 %24, ptr %7, align 4
  %25 = load ptr, ptr %6, align 8
  %26 = load i32, ptr %7, align 4
  %27 = load ptr, ptr %8, align 8
  %28 = load ptr, ptr %12, align 8
  %29 = call i32 @dissect_nfs3_post_op_attr(ptr noundef %25, i32 noundef %26, ptr noundef %27, ptr noundef %28, ptr noundef @.str.2303)
  store i32 %29, ptr %7, align 4
  %30 = load ptr, ptr %11, align 8
  %31 = load i32, ptr %7, align 4
  %32 = load i32, ptr %13, align 4
  %33 = sub i32 %31, %32
  call void @proto_item_set_len(ptr noundef %30, i32 noundef %33)
  %34 = load i32, ptr %7, align 4
  call void @llvm.lifetime.end.p0(i64 4, ptr %13) #16
  call void @llvm.lifetime.end.p0(i64 8, ptr %12) #16
  call void @llvm.lifetime.end.p0(i64 8, ptr %11) #16
  ret i32 %34
}