; Function Attrs: null_pointer_is_valid sspstrong uwtable
define internal fastcc noundef i32 @dissect_wcc_data(ptr noundef %0, i32 noundef %1, ptr noundef readonly captures(none) %2, ptr noundef %3, ptr noundef %4) unnamed_addr #0 {
  %6 = alloca ptr, align 8
  %7 = alloca ptr, align 8
  %8 = alloca i32, align 4
  %9 = alloca ptr, align 8
  call void @llvm.lifetime.start.p0(i64 8, ptr nonnull %9) #22
  %10 = load i32, ptr @ett_nfs3_wcc_data, align 4
  %11 = call ptr @proto_tree_add_subtree(ptr noundef %3, ptr noundef %0, i32 noundef %1, i32 noundef -1, i32 noundef %10, ptr noundef nonnull %9, ptr noundef %4)
  call void @llvm.lifetime.start.p0(i64 8, ptr nonnull %7) #22
  call void @llvm.lifetime.start.p0(i64 4, ptr nonnull %8) #22
  %12 = load i32, ptr @ett_nfs3_pre_op_attr, align 4
  %13 = call ptr @proto_tree_add_subtree(ptr noundef %11, ptr noundef %0, i32 noundef %1, i32 noundef -1, i32 noundef %12, ptr noundef nonnull %7, ptr noundef nonnull @.str.2302)
  %14 = load i32, ptr @hf_nfs3_attributes_follow, align 4
  %15 = call ptr @proto_tree_add_item_ret_uint(ptr noundef %13, i32 noundef %14, ptr noundef %0, i32 noundef %1, i32 noundef 4, i32 noundef 0, ptr noundef nonnull %8)
  %16 = add i32 %1, 4
  %17 = load i32, ptr %8, align 4
  %cond.i = icmp eq i32 %17, 1
  br i1 %cond.i, label %18, label %dissect_pre_op_attr.exit

18:                                               ; preds = %5
  call void @llvm.lifetime.start.p0(i64 8, ptr nonnull %6) #22
  %19 = load i32, ptr @ett_nfs3_wcc_attr, align 4
  %20 = call ptr @proto_tree_add_subtree(ptr noundef %13, ptr noundef %0, i32 noundef %16, i32 noundef -1, i32 noundef %19, ptr noundef nonnull %6, ptr noundef nonnull @.str)
  %21 = load i32, ptr @hf_nfs3_wcc_attr_size, align 4
  %22 = call i32 @dissect_rpc_uint64(ptr noundef %0, ptr noundef %20, i32 noundef %21, i32 noundef %16)
  %23 = load i32, ptr @hf_nfs_mtime, align 4
  %24 = load i32, ptr @hf_nfs_mtime_sec, align 4
  %25 = load i32, ptr @hf_nfs_mtime_nsec, align 4
  %26 = call fastcc i32 @dissect_nfstime3(ptr noundef %0, i32 noundef %22, ptr noundef %20, i32 noundef %23, i32 noundef %24, i32 noundef %25)
  %27 = load i32, ptr @hf_nfs_ctime, align 4
  %28 = load i32, ptr @hf_nfs_ctime_sec, align 4
  %29 = load i32, ptr @hf_nfs_ctime_nsec, align 4
  %30 = call fastcc i32 @dissect_nfstime3(ptr noundef %0, i32 noundef %26, ptr noundef %20, i32 noundef %27, i32 noundef %28, i32 noundef %29)
  %31 = load ptr, ptr %6, align 8
  %32 = sub i32 %30, %16
  call void @proto_item_set_len(ptr noundef %31, i32 noundef %32)
  call void @llvm.lifetime.end.p0(i64 8, ptr nonnull %6) #22
  br label %dissect_pre_op_attr.exit

dissect_pre_op_attr.exit:                         ; preds = %5, %18
  %.0.i = phi i32 [ %30, %18 ], [ %16, %5 ]
  %33 = load ptr, ptr %7, align 8
  %34 = sub i32 %.0.i, %1
  call void @proto_item_set_len(ptr noundef %33, i32 noundef %34)
  call void @llvm.lifetime.end.p0(i64 4, ptr nonnull %8) #22
  call void @llvm.lifetime.end.p0(i64 8, ptr nonnull %7) #22
  %35 = call i32 @dissect_nfs3_post_op_attr(ptr noundef %0, i32 noundef %.0.i, ptr noundef %2, ptr noundef %11, ptr noundef nonnull @.str.2303)
  %36 = load ptr, ptr %9, align 8
  %37 = sub i32 %35, %1
  call void @proto_item_set_len(ptr noundef %36, i32 noundef %37)
  call void @llvm.lifetime.end.p0(i64 8, ptr nonnull %9) #22
  ret i32 %35
}